(dp0
S'points'
p1
(lp2
(I308
I14
tp3
a(I393
I117
tp4
a(I537
I16
tp5
a(I622
I121
tp6
a(I763
I26
tp7
a(I850
I124
tp8
a(I988
I33
tp9
a(I1069
I138
tp10
a(I1207
I38
tp11
a(I1281
I135
tp12
a(I314
I235
tp13
a(I384
I337
tp14
a(I535
I240
tp15
a(I610
I345
tp16
a(I764
I248
tp17
a(I839
I347
tp18
a(I992
I258
tp19
a(I1057
I350
tp20
a(I1207
I265
tp21
a(I1278
I354
tp22
a(I308
I470
tp23
a(I380
I558
tp24
a(I534
I477
tp25
a(I612
I563
tp26
a(I759
I480
tp27
a(I832
I567
tp28
a(I984
I481
tp29
a(I1058
I573
tp30
a(I1204
I488
tp31
a(I1277
I574
tp32
a(I298
I691
tp33
a(I378
I785
tp34
a(I534
I697
tp35
a(I598
I787
tp36
a(I757
I699
tp37
a(I823
I796
tp38
a(I974
I700
tp39
a(I1057
I798
tp40
a(I1203
I704
tp41
a(I1275
I798
tp42
a(I297
I918
tp43
a(I369
I1013
tp44
a(I529
I925
tp45
a(I600
I1017
tp46
a(I749
I928
tp47
a(I825
I1019
tp48
a(I973
I926
tp49
a(I1038
I1012
tp50
a(I1203
I928
tp51
a(I1272
I1015
tp52
asS'centers'
p53
(lp54
(I350
I65
tp55
a(I579
I68
tp56
a(I806
I75
tp57
a(I1028
I85
tp58
a(I1244
I86
tp59
a(I349
I286
tp60
a(I572
I292
tp61
a(I801
I297
tp62
a(I1024
I304
tp63
a(I1242
I309
tp64
a(I344
I514
tp65
a(I573
I520
tp66
a(I795
I523
tp67
a(I1021
I527
tp68
a(I1240
I531
tp69
a(I338
I738
tp70
a(I566
I742
tp71
a(I790
I747
tp72
a(I1015
I749
tp73
a(I1239
I751
tp74
a(I333
I965
tp75
a(I564
I971
tp76
a(I787
I973
tp77
a(I1005
I969
tp78
a(I1237
I971
tp79
as.