(dp0
S'points'
p1
(lp2
(I376
I76
tp3
a(I435
I146
tp4
a(I583
I81
tp5
a(I649
I147
tp6
a(I795
I85
tp7
a(I857
I138
tp8
a(I1002
I80
tp9
a(I1060
I143
tp10
a(I1195
I80
tp11
a(I1262
I144
tp12
a(I360
I237
tp13
a(I421
I309
tp14
a(I578
I246
tp15
a(I636
I311
tp16
a(I792
I244
tp17
a(I859
I313
tp18
a(I1008
I246
tp19
a(I1069
I306
tp20
a(I1211
I244
tp21
a(I1288
I309
tp22
a(I336
I423
tp23
a(I398
I503
tp24
a(I567
I430
tp25
a(I632
I495
tp26
a(I792
I423
tp27
a(I857
I491
tp28
a(I1018
I422
tp29
a(I1091
I494
tp30
a(I1234
I421
tp31
a(I1310
I488
tp32
a(I313
I620
tp33
a(I384
I707
tp34
a(I553
I626
tp35
a(I625
I700
tp36
a(I792
I620
tp37
a(I862
I695
tp38
a(I1027
I620
tp39
a(I1099
I689
tp40
a(I1253
I610
tp41
a(I1334
I685
tp42
a(I279
I847
tp43
a(I355
I944
tp44
a(I537
I844
tp45
a(I619
I936
tp46
a(I781
I832
tp47
a(I868
I917
tp48
a(I1034
I826
tp49
a(I1111
I909
tp50
a(I1276
I814
tp51
a(I1364
I908
tp52
asS'centers'
p53
(lp54
(I405
I111
tp55
a(I616
I114
tp56
a(I826
I111
tp57
a(I1031
I111
tp58
a(I1228
I112
tp59
a(I390
I273
tp60
a(I607
I278
tp61
a(I825
I278
tp62
a(I1038
I276
tp63
a(I1249
I276
tp64
a(I367
I463
tp65
a(I599
I462
tp66
a(I824
I457
tp67
a(I1054
I458
tp68
a(I1272
I454
tp69
a(I348
I663
tp70
a(I589
I663
tp71
a(I827
I657
tp72
a(I1063
I654
tp73
a(I1293
I647
tp74
a(I317
I895
tp75
a(I578
I890
tp76
a(I824
I874
tp77
a(I1072
I867
tp78
a(I1320
I861
tp79
as.