(dp0
S'points'
p1
(lp2
(I487
I73
tp3
a(I553
I147
tp4
a(I695
I75
tp5
a(I761
I144
tp6
a(I902
I80
tp7
a(I969
I139
tp8
a(I1098
I78
tp9
a(I1175
I143
tp10
a(I1301
I81
tp11
a(I1371
I141
tp12
a(I474
I237
tp13
a(I536
I319
tp14
a(I686
I239
tp15
a(I753
I312
tp16
a(I901
I243
tp17
a(I971
I316
tp18
a(I1120
I246
tp19
a(I1180
I312
tp20
a(I1323
I241
tp21
a(I1393
I311
tp22
a(I450
I426
tp23
a(I522
I505
tp24
a(I683
I425
tp25
a(I754
I504
tp26
a(I906
I423
tp27
a(I982
I500
tp28
a(I1129
I420
tp29
a(I1205
I490
tp30
a(I1338
I418
tp31
a(I1429
I490
tp32
a(I432
I611
tp33
a(I502
I710
tp34
a(I679
I623
tp35
a(I749
I702
tp36
a(I907
I612
tp37
a(I994
I701
tp38
a(I1148
I615
tp39
a(I1225
I697
tp40
a(I1370
I611
tp41
a(I1454
I692
tp42
a(I406
I845
tp43
a(I486
I943
tp44
a(I665
I844
tp45
a(I744
I933
tp46
a(I913
I835
tp47
a(I998
I924
tp48
a(I1162
I831
tp49
a(I1243
I912
tp50
a(I1399
I827
tp51
a(I1490
I911
tp52
asS'centers'
p53
(lp54
(I520
I110
tp55
a(I728
I109
tp56
a(I935
I109
tp57
a(I1136
I110
tp58
a(I1336
I111
tp59
a(I505
I278
tp60
a(I719
I275
tp61
a(I936
I279
tp62
a(I1150
I279
tp63
a(I1358
I276
tp64
a(I486
I465
tp65
a(I718
I464
tp66
a(I944
I461
tp67
a(I1167
I455
tp68
a(I1383
I454
tp69
a(I467
I660
tp70
a(I714
I662
tp71
a(I950
I656
tp72
a(I1186
I656
tp73
a(I1412
I651
tp74
a(I446
I894
tp75
a(I704
I888
tp76
a(I955
I879
tp77
a(I1202
I871
tp78
a(I1444
I869
tp79
as.