(dp0
S'points'
p1
(lp2
(I200
I25
tp3
a(I275
I117
tp4
a(I429
I32
tp5
a(I496
I118
tp6
a(I654
I36
tp7
a(I728
I115
tp8
a(I878
I39
tp9
a(I946
I124
tp10
a(I1100
I42
tp11
a(I1176
I133
tp12
a(I197
I243
tp13
a(I266
I340
tp14
a(I427
I249
tp15
a(I496
I342
tp16
a(I650
I257
tp17
a(I724
I345
tp18
a(I876
I264
tp19
a(I941
I346
tp20
a(I1099
I266
tp21
a(I1173
I357
tp22
a(I189
I471
tp23
a(I262
I569
tp24
a(I420
I474
tp25
a(I497
I568
tp26
a(I642
I484
tp27
a(I720
I573
tp28
a(I869
I482
tp29
a(I945
I576
tp30
a(I1092
I486
tp31
a(I1163
I576
tp32
a(I183
I691
tp33
a(I263
I792
tp34
a(I419
I697
tp35
a(I488
I792
tp36
a(I647
I700
tp37
a(I717
I792
tp38
a(I870
I702
tp39
a(I947
I800
tp40
a(I1089
I703
tp41
a(I1172
I806
tp42
a(I178
I918
tp43
a(I251
I1019
tp44
a(I412
I923
tp45
a(I490
I1020
tp46
a(I640
I926
tp47
a(I708
I1009
tp48
a(I867
I926
tp49
a(I936
I1013
tp50
a(I1086
I923
tp51
a(I1161
I1018
tp52
asS'centers'
p53
(lp54
(I237
I71
tp55
a(I462
I75
tp56
a(I691
I75
tp57
a(I912
I81
tp58
a(I1138
I87
tp59
a(I231
I291
tp60
a(I461
I295
tp61
a(I687
I301
tp62
a(I908
I305
tp63
a(I1136
I311
tp64
a(I225
I520
tp65
a(I458
I521
tp66
a(I681
I528
tp67
a(I907
I529
tp68
a(I1127
I531
tp69
a(I223
I741
tp70
a(I453
I744
tp71
a(I682
I746
tp72
a(I908
I751
tp73
a(I1130
I754
tp74
a(I214
I968
tp75
a(I451
I971
tp76
a(I674
I967
tp77
a(I901
I969
tp78
a(I1123
I970
tp79
as.