(dp0
S'rot_ul'
p1
(lp2
F35.785283319908665
aF70.39420778769032
aF61.41435361880378
asS'rot_lr'
p3
(lp4
F109.73647456350632
aF67.71394213109376
aF127.16729394873606
asS'min_pitch'
p5
I40
sS'min_pos_roll'
p6
I40
sS'rot_ll'
p7
(lp8
F52.487364266411916
aF65.84526953818099
aF69.56170020211714
asS'min_x'
p9
cnumpy.core.multiarray
scalar
p10
(cnumpy
dtype
p11
(S'f8'
p12
I0
I1
tp13
Rp14
(I3
S'<'
p15
NNNI-1
I-1
I0
tp16
bS'\x94\xe0q\xad\xee{\x9e?'
p17
tp18
Rp19
sS'min_y'
p20
g10
(g14
S'\x8eu\x1f=l\xfb\xa3?'
p21
tp22
Rp23
sS'rot_ur'
p24
(lp25
F109.37372945476827
aF74.79606165822332
aF135.34042543422885
asS'min_yaw'
p26
I30
sS'max_x'
p27
g10
(g14
S'f\xd1\xd36\xba\xdd\xb3?'
p28
tp29
Rp30
sS'max_y'
p31
g10
(g14
S'\xfe\xbd\xd50:?\xb1?'
p32
tp33
Rp34
sS'max_pos_roll'
p35
I180
sS'min_neg_roll'
p36
I-180
sS'pos_ur'
p37
(lp38
F0.03495208142929894
aF0.03902757879380224
aF-0.0768557532024411
asS'max_pitch'
p39
I80
sS'max_neg_roll'
p40
I-150
sS'pos_ul'
p41
(lp42
F0.0776020416122428
aF0.04268466825110703
aF-0.07985163474868094
asS'roll_pos_lbound'
p43
I140
sS'z_gamma'
p44
g10
(g14
S'\xe0gS\xc2)|\xb2\xbf'
p45
tp46
Rp47
sS'max_yaw'
p48
I150
sS'z_beta'
p49
g10
(g14
S'\x00h\xee\xae[@\x85\xbf'
p50
tp51
Rp52
sS'pos_lr'
p53
(lp54
F0.02976963933585404
aF0.056237887575665835
aF-0.07509322751583014
asS'z_alpha'
p55
g10
(g14
S'\x80<\xcda\xef\x97\xb9\xbf'
p56
tp57
Rp58
sS'pos_ll'
p59
(lp60
F0.07706146599869762
aF0.06737102215060273
aF-0.08109119726406165
asS'roll_neg_ubound'
p61
I-140
s.