(dp0
S'roll_pos_lbound'
p1
I150
sS'rot_lr'
p2
(lp3
F23.443936715483904
aF-23.917738531242733
aF-145.53030146818287
asS'min_pitch'
p4
I-40
sS'z_gamma'
p5
cnumpy.core.multiarray
scalar
p6
(cnumpy
dtype
p7
(S'f8'
p8
I0
I1
tp9
Rp10
(I3
S'<'
p11
NNNI-1
I-1
I0
tp12
bS'\xe8\n\x97\xe5O\x00\xba\xbf'
p13
tp14
Rp15
sS'rot_ll'
p16
(lp17
F32.43373411099885
aF-46.02298891806842
aF-162.81702708542804
asS'min_yaw'
p18
I-90
sS'min_x'
p19
g6
(g10
S'\x1a\xad\x01\xb9)\x81\x9e?'
p20
tp21
Rp22
sS'min_y'
p23
g6
(g10
S'<e\xc37\x95\xaa\x81?'
p24
tp25
Rp26
sS'rot_ur'
p27
(lp28
F24.21819687579066
aF-14.949988215704149
aF-170.10502548848532
asS'rot_ul'
p29
(lp30
F30.808698741055004
aF-39.25478061408292
aF179.19557190806142
asS'max_x'
p31
g6
(g10
S'\x18\x17O\xa7\xd7\x99\xb8?'
p32
tp33
Rp34
sS'max_y'
p35
g6
(g10
S'y\xf7t8_Q\xb3?'
p36
tp37
Rp38
sS'pos_ur'
p39
(lp40
F0.03137476942491878
aF0.008626142277011632
aF-0.10200026483491145
asS'max_pitch'
p41
I40
sS'pos_ul'
p42
(lp43
F0.09609744867983883
aF0.019107392357286944
aF-0.10282094633434587
asS'min_roll'
p44
I-180
sS'max_yaw'
p45
I90
sS'z_beta'
p46
g6
(g10
S'\x00\x99"C\xb3\xec\xad\xbf'
p47
tp48
Rp49
sS'max_roll'
p50
I-150
sS'pos_lr'
p51
(lp52
F0.02978959266367296
aF0.06454469166309337
aF-0.10544249158682525
asS'z_alpha'
p53
g6
(g10
S'\x00@\x0ch.\x11A\xbf'
p54
tp55
Rp56
sS'pos_ll'
p57
(lp58
F0.09465358426853746
aF0.07546038750021279
aF-0.105940291163671
asS'roll_neg_ubound'
p59
I-150
s.